target datalayout = "e-m:e-p270:32:32-p271:32:32-p272:64:64-i64:64-i128:128-f80:128-n8:16:32:64-S128"
target triple = "x86_64-pc-linux-gnu"

%"class.llvm::function_ref" = type { ptr, i64 }
%class.anon.63 = type { ptr, ptr }

; Function Attrs: mustprogress nounwind uwtable
define internal void @"_ZN4llvm12function_refIFvvEEC2IZNKS_2gi18InstructionPattern5printERNS_11raw_ostreamEbE3$_0EEOT_PNSt9enable_ifIXntsr3std7is_sameINS_12remove_cvrefIS9_E4typeES2_EE5valueEvE4typeEPNSB_IXooL_ZNSt17integral_constantIbLb1EE5valueEEsr3std14is_convertibleIDTclclsr3stdE7declvalIS9_EEEEvEE5valueEvE4typeE"(ptr noundef nonnull align 8 dereferenceable(16) %0, ptr noundef nonnull align 8 dereferenceable(16) %1, ptr noundef %2, ptr noundef %3) unnamed_addr #0 align 2 {
  %5 = alloca ptr, align 8
  %6 = alloca ptr, align 8
  %7 = alloca ptr, align 8
  %8 = alloca ptr, align 8
  store ptr %0, ptr %5, align 8
  store ptr %1, ptr %6, align 8
  store ptr %2, ptr %7, align 8
  store ptr %3, ptr %8, align 8
  %9 = load ptr, ptr %5, align 8
  %10 = getelementptr inbounds nuw %"class.llvm::function_ref", ptr %9, i32 0, i32 0
  store ptr @"_ZN4llvm12function_refIFvvEE11callback_fnIZNKS_2gi18InstructionPattern5printERNS_11raw_ostreamEbE3$_0EEvl", ptr %10, align 8
  %11 = getelementptr inbounds nuw %"class.llvm::function_ref", ptr %9, i32 0, i32 1
  %12 = load ptr, ptr %6, align 8
  %13 = ptrtoint ptr %12 to i64
  store i64 %13, ptr %11, align 8
  ret void
}

; Function Attrs: mustprogress nounwind uwtable
define dso_local void @_ZNK4llvm2gi18InstructionPattern5printERNS_11raw_ostreamEb(ptr noundef nonnull align 8 dereferenceable(304) %0, ptr noundef nonnull align 8 dereferenceable(48) %1, i1 noundef zeroext %2) unnamed_addr #0 align 2 {
  %4 = alloca ptr, align 8
  %5 = alloca ptr, align 8
  %6 = alloca i8, align 1
  %7 = alloca %"class.llvm::function_ref", align 8
  %8 = alloca %class.anon.63, align 8
  store ptr %0, ptr %4, align 8
  store ptr %1, ptr %5, align 8
  %9 = zext i1 %2 to i8
  store i8 %9, ptr %6, align 1
  %10 = load ptr, ptr %4, align 8
  %11 = load ptr, ptr %5, align 8
  %12 = load i8, ptr %6, align 1
  %13 = trunc i8 %12 to i1
  %14 = getelementptr inbounds nuw %class.anon.63, ptr %8, i32 0, i32 0
  %15 = load ptr, ptr %5, align 8
  store ptr %15, ptr %14, align 8
  %16 = getelementptr inbounds nuw %class.anon.63, ptr %8, i32 0, i32 1
  store ptr %10, ptr %16, align 8
  call void @"_ZN4llvm12function_refIFvvEEC2IZNKS_2gi18InstructionPattern5printERNS_11raw_ostreamEbE3$_0EEOT_PNSt9enable_ifIXntsr3std7is_sameINS_12remove_cvrefIS9_E4typeES2_EE5valueEvE4typeEPNSB_IXooL_ZNSt17integral_constantIbLb1EE5valueEEsr3std14is_convertibleIDTclclsr3stdE7declvalIS9_EEEEvEE5valueEvE4typeE"(ptr noundef nonnull align 8 dereferenceable(16) %7, ptr noundef nonnull align 8 dereferenceable(16) %8, ptr noundef null, ptr noundef null)
  %17 = getelementptr inbounds nuw { ptr, i64 }, ptr %7, i32 0, i32 0
  %18 = load ptr, ptr %17, align 8
  %19 = getelementptr inbounds nuw { ptr, i64 }, ptr %7, i32 0, i32 1
  %20 = load i64, ptr %19, align 8
  call void @_ZNK4llvm2gi7Pattern9printImplERNS_11raw_ostreamEbNS_12function_refIFvvEEE(ptr noundef nonnull align 8 dereferenceable(32) %10, ptr noundef nonnull align 8 dereferenceable(48) %11, i1 noundef zeroext %13, ptr %18, i64 %20)
  ret void
}